target datalayout = "e-m:e-p270:32:32-p271:32:32-p272:64:64-i64:64-i128:128-f80:128-n8:16:32:64-S128"
target triple = "x86_64-pc-linux-gnu"

%struct.tMPI_Thread_key_t = type { %struct.tMPI_Atomic, ptr }
%struct.tMPI_Atomic = type { i32, [60 x i8] }
%struct.tmpi_datatype_ = type { i64, ptr, i32, ptr, i32 }

@id_key = external global %struct.tMPI_Thread_key_t, align 8

; Function Attrs: mustprogress uwtable
define noundef i32 @_Z11tMPI_ReducePKvPviP14tmpi_datatype_7tMPI_OpiP10tmpi_comm_(ptr noundef %0, ptr noundef %1, i32 noundef %2, ptr noundef %3, i32 noundef %4, i32 noundef %5, ptr noundef %6) #0 {
  %8 = alloca ptr, align 8
  %9 = alloca ptr, align 8
  %10 = alloca i32, align 4
  %11 = alloca ptr, align 8
  %12 = alloca i32, align 4
  %13 = alloca i32, align 4
  %14 = alloca ptr, align 8
  %15 = alloca ptr, align 8
  %16 = alloca %struct.tMPI_Thread_key_t, align 8
  %17 = alloca i32, align 4
  %18 = alloca i32, align 4
  store ptr %0, ptr %8, align 8, !tbaa !3
  store ptr %1, ptr %9, align 8, !tbaa !3
  store i32 %2, ptr %10, align 4, !tbaa !9
  store ptr %3, ptr %11, align 8, !tbaa !7
  store i32 %4, ptr %12, align 4, !tbaa !11
  store i32 %5, ptr %13, align 4, !tbaa !9
  store ptr %6, ptr %14, align 8, !tbaa !13
  call void @llvm.lifetime.start.p0(i64 8, ptr %15) #6
  call void @llvm.memcpy.p0.p0.i64(ptr align 8 %16, ptr align 8 @id_key, i64 72, i1 false), !tbaa.struct !20
  %19 = call noundef ptr @_Z23tMPI_Thread_getspecific17tMPI_Thread_key_t(ptr noundef byval(%struct.tMPI_Thread_key_t) align 8 %16)
  store ptr %19, ptr %15, align 8, !tbaa !24
  call void @llvm.lifetime.start.p0(i64 4, ptr %17) #6
  %20 = load ptr, ptr %14, align 8, !tbaa !13
  %21 = load ptr, ptr %15, align 8, !tbaa !24
  %22 = call noundef i32 @_Z19tMPI_Comm_seek_rankP10tmpi_comm_P11tmpi_thread(ptr noundef %20, ptr noundef %21)
  store i32 %22, ptr %17, align 4, !tbaa !9
  call void @llvm.lifetime.start.p0(i64 4, ptr %18) #6
  %23 = load i32, ptr %17, align 4, !tbaa !9
  %24 = load i32, ptr %13, align 4, !tbaa !9
  %25 = icmp eq i32 %23, %24
  br i1 %25, label %26, label %32

26:                                               ; preds = %7
  %27 = load ptr, ptr %8, align 8, !tbaa !3
  %28 = icmp eq ptr %27, null
  br i1 %28, label %29, label %31

29:                                               ; preds = %26
  %30 = load ptr, ptr %9, align 8, !tbaa !3
  store ptr %30, ptr %8, align 8, !tbaa !3
  br label %31

31:                                               ; preds = %29, %26
  br label %40

32:                                               ; preds = %7
  %33 = load ptr, ptr %11, align 8, !tbaa !7
  %34 = getelementptr inbounds nuw %struct.tmpi_datatype_, ptr %33, i32 0, i32 0
  %35 = load i64, ptr %34, align 8, !tbaa !54
  %36 = load i32, ptr %10, align 4, !tbaa !9
  %37 = sext i32 %36 to i64
  %38 = mul i64 %35, %37
  %39 = call noundef ptr @_Z11tMPI_Mallocm(i64 noundef %38)
  store ptr %39, ptr %9, align 8, !tbaa !3
  br label %40

40:                                               ; preds = %32, %31
  %41 = load ptr, ptr %8, align 8, !tbaa !3
  %42 = load ptr, ptr %9, align 8, !tbaa !3
  %43 = load i32, ptr %10, align 4, !tbaa !9
  %44 = load ptr, ptr %11, align 8, !tbaa !7
  %45 = load i32, ptr %12, align 4, !tbaa !11
  %46 = load i32, ptr %13, align 4, !tbaa !9
  %47 = load ptr, ptr %14, align 8, !tbaa !13
  %48 = call noundef i32 @_Z16tMPI_Reduce_fastPKvPviP14tmpi_datatype_7tMPI_OpiP10tmpi_comm_(ptr noundef %41, ptr noundef %42, i32 noundef %43, ptr noundef %44, i32 noundef %45, i32 noundef %46, ptr noundef %47)
  store i32 %48, ptr %18, align 4, !tbaa !9
  %49 = load i32, ptr %17, align 4, !tbaa !9
  %50 = load i32, ptr %13, align 4, !tbaa !9
  %51 = icmp ne i32 %49, %50
  br i1 %51, label %52, label %54

52:                                               ; preds = %40
  %53 = load ptr, ptr %9, align 8, !tbaa !3
  call void @free(ptr noundef %53) #6
  br label %54

54:                                               ; preds = %52, %40
  %55 = load i32, ptr %18, align 4, !tbaa !9
  call void @llvm.lifetime.end.p0(i64 4, ptr %18) #6
  call void @llvm.lifetime.end.p0(i64 4, ptr %17) #6
  call void @llvm.lifetime.end.p0(i64 8, ptr %15) #6
  ret i32 %55
}