; Function Attrs: mustprogress uwtable
define noundef i32 @_Z11tMPI_ReducePKvPviP14tmpi_datatype_7tMPI_OpiP10tmpi_comm_(ptr noundef %0, ptr noundef %1, i32 noundef %2, ptr noundef readonly captures(none) %3, i32 noundef %4, i32 noundef %5, ptr noundef %6) local_unnamed_addr #0 {
  %8 = tail call noundef ptr @_Z23tMPI_Thread_getspecific17tMPI_Thread_key_t(ptr noundef nonnull byval(%struct.tMPI_Thread_key_t) align 8 @id_key)
  %9 = tail call noundef i32 @_Z19tMPI_Comm_seek_rankP10tmpi_comm_P11tmpi_thread(ptr noundef %6, ptr noundef %8)
  %10 = icmp eq i32 %9, %5
  br i1 %10, label %.thread, label %13

.thread:                                          ; preds = %7
  %11 = icmp eq ptr %0, null
  %spec.select = select i1 %11, ptr %1, ptr %0
  %12 = tail call noundef i32 @_Z16tMPI_Reduce_fastPKvPviP14tmpi_datatype_7tMPI_OpiP10tmpi_comm_(ptr noundef %spec.select, ptr noundef %1, i32 noundef %2, ptr noundef %3, i32 noundef %4, i32 noundef %5, ptr noundef %6)
  br label %19

13:                                               ; preds = %7
  %14 = load i64, ptr %3, align 8, !tbaa !45
  %15 = sext i32 %2 to i64
  %16 = mul i64 %14, %15
  %17 = tail call noundef ptr @_Z11tMPI_Mallocm(i64 noundef %16)
  %18 = tail call noundef i32 @_Z16tMPI_Reduce_fastPKvPviP14tmpi_datatype_7tMPI_OpiP10tmpi_comm_(ptr noundef %0, ptr noundef %17, i32 noundef %2, ptr noundef nonnull %3, i32 noundef %4, i32 noundef %5, ptr noundef %6)
  tail call void @free(ptr noundef %17) #5
  br label %19

19:                                               ; preds = %.thread, %13
  %20 = phi i32 [ %12, %.thread ], [ %18, %13 ]
  ret i32 %20
}